; Function Attrs: nounwind uwtable
define ptr @l_Lean_Compiler_LCNF_Check_checkJpInScope(ptr noundef %0, ptr noundef readonly captures(none) %1, ptr readnone captures(none) %2, ptr readnone captures(none) %3, ptr readnone captures(none) %4, ptr noundef %5, ptr noundef readonly captures(none) %6, ptr noundef %7, ptr noundef %8) local_unnamed_addr #0 {
  %10 = getelementptr inbounds nuw i8, ptr %1, i64 8
  %11 = load ptr, ptr %10, align 8, !tbaa !9
  %12 = tail call ptr @l_Lean_RBNode_findCore___at___private_Lean_Meta_FunInfo_0__Lean_Meta_getFunInfoAux___spec__2(ptr noundef %11, ptr noundef %0) #4
  %13 = ptrtoint ptr %12 to i64
  %14 = and i64 %13, 1
  %.not.i35 = icmp eq i64 %14, 0
  br i1 %.not.i35, label %lean_obj_tag.exit.thread, label %lean_obj_tag.exit

lean_obj_tag.exit:                                ; preds = %9
  %15 = and i64 %13, 8589934590
  %16 = icmp eq i64 %15, 0
  br i1 %16, label %19, label %lean_dec.exit32

lean_obj_tag.exit.thread:                         ; preds = %9
  %17 = getelementptr i8, ptr %12, i64 4
  %.val.i = load i32, ptr %17, align 4
  %18 = icmp ult i32 %.val.i, 16777216
  br i1 %18, label %19, label %.thread

19:                                               ; preds = %lean_obj_tag.exit.thread, %lean_obj_tag.exit
  %20 = tail call ptr @l_Lean_Expr_fvar___override(ptr noundef %0) #4
  %21 = tail call ptr @l_Lean_MessageData_ofExpr(ptr noundef %20) #4
  %22 = load ptr, ptr @l_Lean_Compiler_LCNF_Check_checkJpInScope___closed__2, align 8, !tbaa !9
  tail call void @lean_inc_heartbeat() #4
  %23 = tail call noalias ptr @mi_malloc_small(i64 noundef 24) #4
  %24 = icmp eq ptr %23, null
  br i1 %24, label %25, label %lean_alloc_ctor.exit

25:                                               ; preds = %19
  tail call void @lean_internal_panic_out_of_memory() #5
  unreachable

lean_alloc_ctor.exit:                             ; preds = %19
  %26 = getelementptr inbounds nuw i8, ptr %23, i64 4
  store i32 1, ptr %23, align 4, !tbaa !4
  store i32 117571608, ptr %26, align 4
  %27 = getelementptr inbounds nuw i8, ptr %23, i64 8
  store ptr %22, ptr %27, align 8, !tbaa !9
  %28 = getelementptr inbounds nuw i8, ptr %23, i64 16
  store ptr %21, ptr %28, align 8, !tbaa !9
  %29 = load ptr, ptr @l_Lean_Compiler_LCNF_Check_checkJpInScope___closed__4, align 8, !tbaa !9
  tail call void @lean_inc_heartbeat() #4
  %30 = tail call noalias ptr @mi_malloc_small(i64 noundef 24) #4
  %31 = icmp eq ptr %30, null
  br i1 %31, label %32, label %lean_alloc_ctor.exit36

32:                                               ; preds = %lean_alloc_ctor.exit
  tail call void @lean_internal_panic_out_of_memory() #5
  unreachable

lean_alloc_ctor.exit36:                           ; preds = %lean_alloc_ctor.exit
  %33 = getelementptr inbounds nuw i8, ptr %30, i64 4
  store i32 1, ptr %30, align 4, !tbaa !4
  store i32 117571608, ptr %33, align 4
  %34 = getelementptr inbounds nuw i8, ptr %30, i64 8
  store ptr %23, ptr %34, align 8, !tbaa !9
  %35 = getelementptr inbounds nuw i8, ptr %30, i64 16
  store ptr %29, ptr %35, align 8, !tbaa !9
  %36 = tail call ptr @l_Lean_throwError___at_Lean_Compiler_LCNF_Check_checkFVar___spec__1(ptr noundef nonnull %30, ptr nonnull poison, ptr poison, ptr poison, ptr poison, ptr noundef %5, ptr noundef %6, ptr noundef %7, ptr noundef %8)
  br label %58

.thread:                                          ; preds = %lean_obj_tag.exit.thread
  %37 = load i32, ptr %12, align 4, !tbaa !4
  %38 = icmp sgt i32 %37, 1
  br i1 %38, label %39, label %41, !prof !12

39:                                               ; preds = %.thread
  %40 = add nsw i32 %37, -1
  store i32 %40, ptr %12, align 4, !tbaa !4
  br label %lean_dec.exit32

41:                                               ; preds = %.thread
  %.not.i = icmp eq i32 %37, 0
  br i1 %.not.i, label %lean_dec.exit32, label %42

42:                                               ; preds = %41
  tail call void @lean_dec_ref_cold(ptr noundef nonnull %12) #4
  br label %lean_dec.exit32

lean_dec.exit32:                                  ; preds = %lean_obj_tag.exit, %42, %41, %39
  %43 = ptrtoint ptr %0 to i64
  %44 = and i64 %43, 1
  %.not = icmp eq i64 %44, 0
  br i1 %.not, label %45, label %lean_dec.exit

45:                                               ; preds = %lean_dec.exit32
  %46 = load i32, ptr %0, align 4, !tbaa !4
  %47 = icmp sgt i32 %46, 1
  br i1 %47, label %48, label %50, !prof !12

48:                                               ; preds = %45
  %49 = add nsw i32 %46, -1
  store i32 %49, ptr %0, align 4, !tbaa !4
  br label %lean_dec.exit

50:                                               ; preds = %45
  %.not.i33 = icmp eq i32 %46, 0
  br i1 %.not.i33, label %lean_dec.exit, label %51

51:                                               ; preds = %50
  tail call void @lean_dec_ref_cold(ptr noundef nonnull %0) #4
  br label %lean_dec.exit

lean_dec.exit:                                    ; preds = %51, %50, %48, %lean_dec.exit32
  tail call void @lean_inc_heartbeat() #4
  %52 = tail call noalias ptr @mi_malloc_small(i64 noundef 24) #4
  %53 = icmp eq ptr %52, null
  br i1 %53, label %54, label %lean_alloc_ctor.exit37

54:                                               ; preds = %lean_dec.exit
  tail call void @lean_internal_panic_out_of_memory() #5
  unreachable

lean_alloc_ctor.exit37:                           ; preds = %lean_dec.exit
  %55 = getelementptr inbounds nuw i8, ptr %52, i64 4
  store i32 1, ptr %52, align 4, !tbaa !4
  store i32 131096, ptr %55, align 4
  %56 = getelementptr inbounds nuw i8, ptr %52, i64 8
  store ptr inttoptr (i64 1 to ptr), ptr %56, align 8, !tbaa !9
  %57 = getelementptr inbounds nuw i8, ptr %52, i64 16
  store ptr %8, ptr %57, align 8, !tbaa !9
  br label %58

58:                                               ; preds = %lean_alloc_ctor.exit37, %lean_alloc_ctor.exit36
  %.0 = phi ptr [ %36, %lean_alloc_ctor.exit36 ], [ %52, %lean_alloc_ctor.exit37 ]
  ret ptr %.0
}